Certificate:
    Data:
        Version: 1 (0x0)
        Serial Number: 2 (0x2)
    Signature Algorithm: md5WithRSAEncryption
        Issuer: C=BE, ST=Antwerp, L=Edegem, O=Technicolor, OU=CoreMW, CN=DDS/emailAddress=dds@technicolor.com
        Validity
            Not Before: Sep 17 18:31:55 2012 GMT
            Not After : Sep 17 18:31:55 2013 GMT
        Subject: C=BE, ST=Antwerp, L=Edegem, O=Technicolor, OU=CoreMW, CN=DCPS Test program (Client)
        Subject Public Key Info:
            Public Key Algorithm: rsaEncryption
                Public-Key: (2048 bit)
                Modulus:
                    00:a0:38:d8:32:3f:93:16:5f:8e:f9:3b:2b:7a:f8:
                    90:1d:09:86:c8:60:fc:0c:e6:f4:e2:44:fd:7b:b1:
                    fe:4c:69:0e:73:27:63:03:1e:41:c5:8f:91:bc:6c:
                    1f:b6:d0:5c:82:a5:71:4e:1d:f0:6c:30:4d:ef:ff:
                    52:af:1f:af:24:b9:00:d9:26:e0:9d:32:6e:61:89:
                    25:40:5f:c4:1f:0c:45:51:1f:49:7a:ba:63:1f:f1:
                    5f:6c:08:71:d5:fd:39:fe:85:27:7d:82:1d:44:b8:
                    29:e4:6d:f3:3b:b3:38:42:33:54:86:3e:0f:cf:7f:
                    6b:2a:3a:f8:2c:8c:cb:0b:31:38:a6:a4:d2:15:c9:
                    c1:39:15:15:2a:45:cf:3b:43:e5:14:12:01:8d:b5:
                    e4:cd:9f:50:3f:47:38:4c:25:d9:2a:7a:f4:87:81:
                    1b:08:5c:ee:80:cc:1b:41:d9:34:b8:6e:7a:15:32:
                    7a:7f:3c:59:6d:d3:c8:5d:7f:e2:6c:13:a2:74:39:
                    f3:8d:42:b4:5c:4f:47:1e:99:e9:da:18:d2:11:6e:
                    6a:8b:e5:ef:5e:af:83:40:5a:80:79:e4:ce:6b:ec:
                    8d:46:38:05:28:9a:4e:ed:a9:9e:98:15:92:27:74:
                    70:c3:83:26:0e:5a:d9:6b:e7:03:46:ca:db:6f:de:
                    b2:63
                Exponent: 65537 (0x10001)
    Signature Algorithm: md5WithRSAEncryption
         a8:a8:91:87:04:7a:49:f3:f9:8c:54:cd:a4:8e:45:88:e3:97:
         77:19:20:b5:ca:26:f2:63:8a:b9:78:8d:d0:de:0a:32:e7:99:
         67:67:08:5f:6f:18:99:70:73:6c:a8:45:d8:ef:7e:f4:21:5e:
         ef:f0:f9:39:7b:03:81:e1:da:4b:02:0b:a6:92:09:01:10:4b:
         78:84:7b:42:65:a4:1d:b9:3c:42:f9:b3:40:62:f3:8f:1f:79:
         13:eb:05:46:ee:4b:cd:d4:bc:16:d3:45:69:70:05:80:a0:1c:
         99:d5:b6:64:3f:82:18:d9:3a:f9:9a:f3:74:00:8b:e3:24:0d:
         b8:08:9f:8c:30:a1:4f:d4:0e:57:93:e5:91:dc:50:97:87:2b:
         1e:cb:49:2a:c2:eb:27:2c:44:75:6d:b8:3b:f6:17:06:5a:6e:
         c1:ca:1f:0c:43:41:e8:58:d1:1b:41:88:d5:23:12:38:24:b3:
         45:0d:9e:d3:80:89:24:ce:1e:6a:5f:d2:81:ac:9b:c3:54:d1:
         a6:9c:88:0f:bc:52:8d:69:54:46:c6:da:00:9d:70:0b:33:5b:
         91:12:03:2a:64:1b:a2:04:8a:5c:e3:f7:4e:51:12:f4:91:81:
         f9:18:38:7f:b5:29:92:51:3a:43:89:58:dd:59:0a:99:f4:35:
         29:b0:71:ad
-----BEGIN CERTIFICATE-----
MIIDejCCAmICAQIwDQYJKoZIhvcNAQEEBQAwgYkxCzAJBgNVBAYTAkJFMRAwDgYD
VQQIDAdBbnR3ZXJwMQ8wDQYDVQQHDAZFZGVnZW0xFDASBgNVBAoMC1RlY2huaWNv
bG9yMQ8wDQYDVQQLDAZDb3JlTVcxDDAKBgNVBAMMA0REUzEiMCAGCSqGSIb3DQEJ
ARYTZGRzQHRlY2huaWNvbG9yLmNvbTAeFw0xMjA5MTcxODMxNTVaFw0xMzA5MTcx
ODMxNTVaMHwxCzAJBgNVBAYTAkJFMRAwDgYDVQQIDAdBbnR3ZXJwMQ8wDQYDVQQH
DAZFZGVnZW0xFDASBgNVBAoMC1RlY2huaWNvbG9yMQ8wDQYDVQQLDAZDb3JlTVcx
IzAhBgNVBAMMGkRDUFMgVGVzdCBwcm9ncmFtIChDbGllbnQpMIIBIjANBgkqhkiG
9w0BAQEFAAOCAQ8AMIIBCgKCAQEAoDjYMj+TFl+O+TsreviQHQmGyGD8DOb04kT9
e7H+TGkOcydjAx5BxY+RvGwfttBcgqVxTh3wbDBN7/9Srx+vJLkA2SbgnTJuYYkl
QF/EHwxFUR9JerpjH/FfbAhx1f05/oUnfYIdRLgp5G3zO7M4QjNUhj4Pz39rKjr4
LIzLCzE4pqTSFcnBORUVKkXPO0PlFBIBjbXkzZ9QP0c4TCXZKnr0h4EbCFzugMwb
Qdk0uG56FTJ6fzxZbdPIXX/ibBOidDnzjUK0XE9HHpnp2hjSEW5qi+XvXq+DQFqA
eeTOa+yNRjgFKJpO7amemBWSJ3Rww4MmDlrZa+cDRsrbb96yYwIDAQABMA0GCSqG
SIb3DQEBBAUAA4IBAQCoqJGHBHpJ8/mMVM2kjkWI45d3GSC1yibyY4q5eI3Q3goy
55lnZwhfbxiZcHNsqEXY7370IV7v8Pk5ewOB4dpLAgumkgkBEEt4hHtCZaQduTxC
+bNAYvOPH3kT6wVG7kvN1LwW00VpcAWAoByZ1bZkP4IY2Tr5mvN0AIvjJA24CJ+M
MKFP1A5Xk+WR3FCXhysey0kqwusnLER1bbg79hcGWm7Byh8MQ0HoWNEbQYjVIxI4
JLNFDZ7TgIkkzh5qX9KBrJvDVNGmnIgPvFKNaVRGxtoAnXALM1uREgMqZBuiBIpc
4/dOURL0kYH5GDh/tSmSUTpDiVjdWQqZ9DUpsHGt
-----END CERTIFICATE-----
