Certificate:
    Data:
        Version: 1 (0x0)
        Serial Number: 1 (0x1)
    Signature Algorithm: md5WithRSAEncryption
        Issuer: C=BE, ST=Antwerp, L=Edegem, O=Technicolor, OU=CoreMW, CN=DDS/emailAddress=dds@technicolor.com
        Validity
            Not Before: Sep 17 18:26:15 2012 GMT
            Not After : Sep 17 18:26:15 2013 GMT
        Subject: C=BE, ST=Antwerp, L=Edegem, O=Technicolor, OU=CoreMW, CN=DCPS Test program
        Subject Public Key Info:
            Public Key Algorithm: rsaEncryption
                Public-Key: (2048 bit)
                Modulus:
                    00:b1:c2:75:b5:90:be:46:e0:8c:30:ee:d3:85:7f:
                    d8:28:8a:0c:e0:63:7a:95:5d:76:71:89:c3:fc:5c:
                    8a:e6:3c:eb:d7:d6:25:58:7a:85:04:5b:8a:4e:6c:
                    e3:dc:50:81:8d:18:61:2a:44:28:96:c4:5d:39:02:
                    40:58:25:89:b9:bb:b4:3a:3d:c9:e1:7d:be:cd:9e:
                    24:86:bc:86:e3:45:cc:3b:8b:0e:3a:29:93:63:b1:
                    42:07:1f:44:36:ef:f1:b0:c5:71:3c:85:18:8e:98:
                    d3:61:0f:99:53:c6:79:f3:b3:79:0b:83:c3:f2:58:
                    b7:70:a8:6a:3d:72:d3:8d:78:6c:3b:90:61:d0:2d:
                    ac:26:ec:43:10:f6:4f:ac:48:44:3d:bd:40:4f:e3:
                    ef:50:fa:b6:05:50:1c:db:75:c7:0d:1e:bf:6b:45:
                    65:79:bf:a6:28:d5:1a:88:68:61:21:36:74:6c:97:
                    77:9f:e7:37:0a:59:aa:ae:3b:91:ac:06:95:2f:a7:
                    bc:d9:72:0f:2e:ad:91:50:b8:a7:48:31:ef:b7:af:
                    55:cd:ac:36:f4:39:42:22:d0:a7:04:09:5d:90:45:
                    76:02:88:63:f1:8d:e2:c0:1b:c1:9d:99:6f:21:4b:
                    61:05:ac:bc:d5:40:e0:5b:3b:10:e7:9c:aa:d9:b5:
                    76:d9
                Exponent: 65537 (0x10001)
    Signature Algorithm: md5WithRSAEncryption
         66:1a:3c:c5:58:d4:2d:bc:63:fa:b5:64:bc:35:91:29:97:73:
         9e:18:7f:4c:9e:1a:e2:6f:44:b0:2b:99:eb:d0:b4:c1:6a:fc:
         dd:ee:b9:d4:1c:52:36:f5:4b:d4:1a:fa:bc:ff:d0:7d:24:2e:
         47:95:1a:0e:e2:27:6b:d6:5d:cd:e5:84:9a:b5:da:72:d3:9f:
         b1:fd:e9:56:bd:a4:da:76:dc:ca:1b:82:a2:ea:16:2e:19:bd:
         35:4d:c5:28:c2:c2:f9:22:a8:bd:42:2a:c3:7d:50:84:c7:a1:
         5f:ba:e5:d4:21:57:51:0d:fa:dc:41:be:11:c5:29:dc:be:46:
         9c:ef:6e:e8:e3:79:67:eb:9e:b8:4f:3c:19:28:ba:29:6c:3d:
         e6:d7:80:88:17:37:7c:74:8d:a2:1a:97:3c:51:db:99:28:a4:
         ea:7d:76:b3:25:6c:f0:65:f9:57:cc:dc:7a:b9:f2:da:80:42:
         bb:83:93:ac:c4:26:b9:a9:e6:3a:d7:0d:90:25:5c:a0:61:be:
         98:69:ba:7a:52:a7:9b:29:2f:d6:3a:2f:3e:23:2b:3a:66:8e:
         b1:60:51:fd:c9:0a:a6:90:32:85:d2:c5:20:12:a6:ad:bf:68:
         98:91:3c:12:df:71:56:6d:c7:c6:b2:89:db:37:d8:a4:cf:22:
         8c:f5:a3:af
-----BEGIN CERTIFICATE-----
MIIDcTCCAlkCAQEwDQYJKoZIhvcNAQEEBQAwgYkxCzAJBgNVBAYTAkJFMRAwDgYD
VQQIDAdBbnR3ZXJwMQ8wDQYDVQQHDAZFZGVnZW0xFDASBgNVBAoMC1RlY2huaWNv
bG9yMQ8wDQYDVQQLDAZDb3JlTVcxDDAKBgNVBAMMA0REUzEiMCAGCSqGSIb3DQEJ
ARYTZGRzQHRlY2huaWNvbG9yLmNvbTAeFw0xMjA5MTcxODI2MTVaFw0xMzA5MTcx
ODI2MTVaMHMxCzAJBgNVBAYTAkJFMRAwDgYDVQQIDAdBbnR3ZXJwMQ8wDQYDVQQH
DAZFZGVnZW0xFDASBgNVBAoMC1RlY2huaWNvbG9yMQ8wDQYDVQQLDAZDb3JlTVcx
GjAYBgNVBAMMEURDUFMgVGVzdCBwcm9ncmFtMIIBIjANBgkqhkiG9w0BAQEFAAOC
AQ8AMIIBCgKCAQEAscJ1tZC+RuCMMO7ThX/YKIoM4GN6lV12cYnD/FyK5jzr19Yl
WHqFBFuKTmzj3FCBjRhhKkQolsRdOQJAWCWJubu0Oj3J4X2+zZ4khryG40XMO4sO
OimTY7FCBx9ENu/xsMVxPIUYjpjTYQ+ZU8Z587N5C4PD8li3cKhqPXLTjXhsO5Bh
0C2sJuxDEPZPrEhEPb1AT+PvUPq2BVAc23XHDR6/a0Vleb+mKNUaiGhhITZ0bJd3
n+c3ClmqrjuRrAaVL6e82XIPLq2RULinSDHvt69Vzaw29DlCItCnBAldkEV2Aohj
8Y3iwBvBnZlvIUthBay81UDgWzsQ55yq2bV22QIDAQABMA0GCSqGSIb3DQEBBAUA
A4IBAQBmGjzFWNQtvGP6tWS8NZEpl3OeGH9Mnhrib0SwK5nr0LTBavzd7rnUHFI2
9UvUGvq8/9B9JC5HlRoO4idr1l3N5YSatdpy05+x/elWvaTadtzKG4Ki6hYuGb01
TcUowsL5Iqi9QirDfVCEx6FfuuXUIVdRDfrcQb4RxSncvkac727o43ln6564TzwZ
KLopbD3m14CIFzd8dI2iGpc8UduZKKTqfXazJWzwZflXzNx6ufLagEK7g5OsxCa5
qeY61w2QJVygYb6Yabp6UqebKS/WOi8+Iys6Zo6xYFH9yQqmkDKF0sUgEqatv2iY
kTwS33FWbcfGsonbN9ikzyKM9aOv
-----END CERTIFICATE-----
